target datalayout = "e-m:e-p270:32:32-p271:32:32-p272:64:64-i64:64-i128:128-f80:128-n8:16:32:64-S128"
target triple = "x86_64-pc-linux-gnu"

%struct.IDAMemRec = type { double, ptr, ptr, i32, double, double, ptr, i32, ptr, ptr, i32, ptr, ptr, i32, i32, double, double, ptr, i32, i32, i32, ptr, ptr, i32, ptr, ptr, ptr, i32, double, i32, i32, double, ptr, ptr, i32, ptr, ptr, i32, i32, i32, double, ptr, ptr, [6 x ptr], [6 x double], [6 x double], [6 x double], [6 x double], [6 x double], ptr, ptr, ptr, ptr, ptr, ptr, ptr, ptr, ptr, ptr, ptr, ptr, ptr, ptr, ptr, [6 x ptr], ptr, ptr, ptr, ptr, [6 x ptr], ptr, ptr, ptr, ptr, ptr, ptr, ptr, ptr, ptr, ptr, ptr, ptr, ptr, ptr, [6 x ptr], ptr, ptr, ptr, ptr, ptr, double, ptr, ptr, i32, i32, i32, i32, i32, i32, i32, double, double, double, i32, double, i32, i32, i32, i32, double, double, double, double, double, double, double, double, double, double, double, double, double, double, i32, i32, i32, i32, i32, i64, double, i32, i64, i64, i64, i64, i64, i64, i64, i64, i64, i64, i64, i64, i64, i64, i64, i64, i64, i64, i64, i64, i64, i64, i64, i64, ptr, ptr, ptr, i32, i32, i32, i32, i32, i32, i32, i32, i32, i32, i32, i32, i32, ptr, ptr, ptr, ptr, ptr, ptr, i32, i32, i32, i32, i32, i32, double, double, double, ptr, i32, ptr, ptr, double, double, double, ptr, ptr, ptr, double, double, i32, i32, i64, ptr, i32, i32, ptr, i32 }
%struct.IDAadjMemRec = type { double, double, i32, i32, double, ptr, i32, ptr, i32, ptr, ptr, i32, i64, ptr, i64, i32, ptr, ptr, ptr, ptr, i32, i32, i32, i32, i32, [6 x ptr], [6 x ptr], [6 x double], ptr, ptr, ptr, ptr, i64 }
%struct.DtpntMemRec = type { double, ptr }
%struct.HermiteDataMemRec = type { ptr, ptr, ptr, ptr }

; Function Attrs: nounwind uwtable
define internal void @IDAAhermiteFree(ptr noundef %0) #0 {
  %2 = alloca ptr, align 8
  %3 = alloca ptr, align 8
  %4 = alloca ptr, align 8
  %5 = alloca ptr, align 8
  %6 = alloca i64, align 8
  store ptr %0, ptr %2, align 8, !tbaa !11
  call void @llvm.lifetime.start.p0(i64 8, ptr %3) #6
  call void @llvm.lifetime.start.p0(i64 8, ptr %4) #6
  call void @llvm.lifetime.start.p0(i64 8, ptr %5) #6
  call void @llvm.lifetime.start.p0(i64 8, ptr %6) #6
  %7 = load ptr, ptr %2, align 8, !tbaa !11
  %8 = getelementptr inbounds nuw %struct.IDAMemRec, ptr %7, i32 0, i32 204
  %9 = load ptr, ptr %8, align 8, !tbaa !15
  store ptr %9, ptr %3, align 8, !tbaa !13
  %10 = load ptr, ptr %3, align 8, !tbaa !13
  %11 = getelementptr inbounds nuw %struct.IDAadjMemRec, ptr %10, i32 0, i32 28
  %12 = load ptr, ptr %11, align 8, !tbaa !30
  call void @N_VDestroy(ptr noundef %12)
  %13 = load ptr, ptr %3, align 8, !tbaa !13
  %14 = getelementptr inbounds nuw %struct.IDAadjMemRec, ptr %13, i32 0, i32 29
  %15 = load ptr, ptr %14, align 8, !tbaa !31
  call void @N_VDestroy(ptr noundef %15)
  %16 = load ptr, ptr %3, align 8, !tbaa !13
  %17 = getelementptr inbounds nuw %struct.IDAadjMemRec, ptr %16, i32 0, i32 22
  %18 = load i32, ptr %17, align 8, !tbaa !41
  %19 = icmp ne i32 %18, 0
  br i1 %19, label %20, label %33

20:                                               ; preds = %1
  %21 = load ptr, ptr %3, align 8, !tbaa !13
  %22 = getelementptr inbounds nuw %struct.IDAadjMemRec, ptr %21, i32 0, i32 30
  %23 = load ptr, ptr %22, align 8, !tbaa !32
  %24 = load ptr, ptr %2, align 8, !tbaa !11
  %25 = getelementptr inbounds nuw %struct.IDAMemRec, ptr %24, i32 0, i32 19
  %26 = load i32, ptr %25, align 4, !tbaa !62
  call void @N_VDestroyVectorArray(ptr noundef %23, i32 noundef %26)
  %27 = load ptr, ptr %3, align 8, !tbaa !13
  %28 = getelementptr inbounds nuw %struct.IDAadjMemRec, ptr %27, i32 0, i32 31
  %29 = load ptr, ptr %28, align 8, !tbaa !33
  %30 = load ptr, ptr %2, align 8, !tbaa !11
  %31 = getelementptr inbounds nuw %struct.IDAMemRec, ptr %30, i32 0, i32 19
  %32 = load i32, ptr %31, align 4, !tbaa !62
  call void @N_VDestroyVectorArray(ptr noundef %29, i32 noundef %32)
  br label %33

33:                                               ; preds = %20, %1
  %34 = load ptr, ptr %3, align 8, !tbaa !13
  %35 = getelementptr inbounds nuw %struct.IDAadjMemRec, ptr %34, i32 0, i32 13
  %36 = load ptr, ptr %35, align 8, !tbaa !52
  store ptr %36, ptr %4, align 8, !tbaa !53
  store i64 0, ptr %6, align 8, !tbaa !7
  br label %37

37:                                               ; preds = %89, %33
  %38 = load i64, ptr %6, align 8, !tbaa !7
  %39 = load ptr, ptr %3, align 8, !tbaa !13
  %40 = getelementptr inbounds nuw %struct.IDAadjMemRec, ptr %39, i32 0, i32 12
  %41 = load i64, ptr %40, align 8, !tbaa !35
  %42 = icmp sle i64 %38, %41
  br i1 %42, label %43, label %92

43:                                               ; preds = %37
  %44 = load ptr, ptr %4, align 8, !tbaa !53
  %45 = load i64, ptr %6, align 8, !tbaa !7
  %46 = getelementptr inbounds ptr, ptr %44, i64 %45
  %47 = load ptr, ptr %46, align 8, !tbaa !54
  %48 = getelementptr inbounds nuw %struct.DtpntMemRec, ptr %47, i32 0, i32 1
  %49 = load ptr, ptr %48, align 8, !tbaa !58
  store ptr %49, ptr %5, align 8, !tbaa !63
  %50 = load ptr, ptr %5, align 8, !tbaa !63
  %51 = icmp ne ptr %50, null
  br i1 %51, label %52, label %88

52:                                               ; preds = %43
  %53 = load ptr, ptr %5, align 8, !tbaa !63
  %54 = getelementptr inbounds nuw %struct.HermiteDataMemRec, ptr %53, i32 0, i32 0
  %55 = load ptr, ptr %54, align 8, !tbaa !65
  call void @N_VDestroy(ptr noundef %55)
  %56 = load ptr, ptr %5, align 8, !tbaa !63
  %57 = getelementptr inbounds nuw %struct.HermiteDataMemRec, ptr %56, i32 0, i32 1
  %58 = load ptr, ptr %57, align 8, !tbaa !67
  call void @N_VDestroy(ptr noundef %58)
  %59 = load ptr, ptr %3, align 8, !tbaa !13
  %60 = getelementptr inbounds nuw %struct.IDAadjMemRec, ptr %59, i32 0, i32 22
  %61 = load i32, ptr %60, align 8, !tbaa !41
  %62 = icmp ne i32 %61, 0
  br i1 %62, label %63, label %76

63:                                               ; preds = %52
  %64 = load ptr, ptr %5, align 8, !tbaa !63
  %65 = getelementptr inbounds nuw %struct.HermiteDataMemRec, ptr %64, i32 0, i32 2
  %66 = load ptr, ptr %65, align 8, !tbaa !68
  %67 = load ptr, ptr %2, align 8, !tbaa !11
  %68 = getelementptr inbounds nuw %struct.IDAMemRec, ptr %67, i32 0, i32 19
  %69 = load i32, ptr %68, align 4, !tbaa !62
  call void @N_VDestroyVectorArray(ptr noundef %66, i32 noundef %69)
  %70 = load ptr, ptr %5, align 8, !tbaa !63
  %71 = getelementptr inbounds nuw %struct.HermiteDataMemRec, ptr %70, i32 0, i32 3
  %72 = load ptr, ptr %71, align 8, !tbaa !69
  %73 = load ptr, ptr %2, align 8, !tbaa !11
  %74 = getelementptr inbounds nuw %struct.IDAMemRec, ptr %73, i32 0, i32 19
  %75 = load i32, ptr %74, align 4, !tbaa !62
  call void @N_VDestroyVectorArray(ptr noundef %72, i32 noundef %75)
  br label %76

76:                                               ; preds = %63, %52
  %77 = load ptr, ptr %4, align 8, !tbaa !53
  %78 = load i64, ptr %6, align 8, !tbaa !7
  %79 = getelementptr inbounds ptr, ptr %77, i64 %78
  %80 = load ptr, ptr %79, align 8, !tbaa !54
  %81 = getelementptr inbounds nuw %struct.DtpntMemRec, ptr %80, i32 0, i32 1
  %82 = load ptr, ptr %81, align 8, !tbaa !58
  call void @free(ptr noundef %82) #6
  %83 = load ptr, ptr %4, align 8, !tbaa !53
  %84 = load i64, ptr %6, align 8, !tbaa !7
  %85 = getelementptr inbounds ptr, ptr %83, i64 %84
  %86 = load ptr, ptr %85, align 8, !tbaa !54
  %87 = getelementptr inbounds nuw %struct.DtpntMemRec, ptr %86, i32 0, i32 1
  store ptr null, ptr %87, align 8, !tbaa !58
  br label %88

88:                                               ; preds = %76, %43
  br label %89

89:                                               ; preds = %88
  %90 = load i64, ptr %6, align 8, !tbaa !7
  %91 = add nsw i64 %90, 1
  store i64 %91, ptr %6, align 8, !tbaa !7
  br label %37, !llvm.loop !72

92:                                               ; preds = %37
  call void @llvm.lifetime.end.p0(i64 8, ptr %6) #6
  call void @llvm.lifetime.end.p0(i64 8, ptr %5) #6
  call void @llvm.lifetime.end.p0(i64 8, ptr %4) #6
  call void @llvm.lifetime.end.p0(i64 8, ptr %3) #6
  ret void
}